target datalayout = "e-m:e-p270:32:32-p271:32:32-p272:64:64-i64:64-i128:128-f80:128-n8:16:32:64-S128"
target triple = "x86_64-pc-linux-gnu"

%struct.Bus_Man_t_ = type { ptr, ptr, ptr, ptr, ptr, ptr, ptr, ptr, ptr, ptr, ptr, ptr }
%struct.Vec_Ptr_t_ = type { i32, i32, ptr }
%struct.Abc_Ntk_t_ = type { i32, i32, ptr, ptr, ptr, ptr, ptr, ptr, ptr, ptr, ptr, ptr, ptr, [11 x i32], i32, i32, i32, i32, ptr, i32, ptr, ptr, i32, i32, i32, double, i32, %struct.Vec_Int_t_, ptr, ptr, ptr, ptr, ptr, float, i32, ptr, ptr, ptr, ptr, ptr, ptr, ptr, ptr, ptr, ptr, ptr, ptr, ptr, ptr, ptr, ptr, ptr, ptr, ptr, ptr, ptr, ptr }
%struct.Vec_Int_t_ = type { i32, i32, ptr }
%struct.Vec_Flt_t_ = type { i32, i32, ptr }
%struct.Abc_Obj_t_ = type { ptr, ptr, i32, i32, %struct.Vec_Int_t_, %struct.Vec_Int_t_, %union.anon, %union.anon.0 }
%union.anon = type { ptr }
%union.anon.0 = type { ptr }

; Function Attrs: inlinehint nounwind uwtable
define internal float @Vec_FltEntry(ptr noundef %0, i32 noundef %1) #4 {
  %3 = alloca ptr, align 8
  %4 = alloca i32, align 4
  store ptr %0, ptr %3, align 8, !tbaa !70
  store i32 %1, ptr %4, align 4, !tbaa !58
  %5 = load ptr, ptr %3, align 8, !tbaa !70
  %6 = getelementptr inbounds nuw %struct.Vec_Flt_t_, ptr %5, i32 0, i32 2
  %7 = load ptr, ptr %6, align 8, !tbaa !73
  %8 = load i32, ptr %4, align 4, !tbaa !58
  %9 = sext i32 %8 to i64
  %10 = getelementptr inbounds float, ptr %7, i64 %9
  %11 = load float, ptr %10, align 4, !tbaa !74
  ret float %11
}

; Function Attrs: inlinehint nounwind uwtable
define internal i32 @Abc_ObjId(ptr noundef %0) #4 {
  %2 = alloca ptr, align 8
  store ptr %0, ptr %2, align 8, !tbaa !60
  %3 = load ptr, ptr %2, align 8, !tbaa !60
  %4 = getelementptr inbounds nuw %struct.Abc_Obj_t_, ptr %3, i32 0, i32 2
  %5 = load i32, ptr %4, align 8, !tbaa !101
  ret i32 %5
}

; Function Attrs: inlinehint nounwind uwtable
define internal ptr @Bus_SclObjMan(ptr noundef %0) #4 {
  %2 = alloca ptr, align 8
  store ptr %0, ptr %2, align 8, !tbaa !60
  %3 = load ptr, ptr %2, align 8, !tbaa !60
  %4 = getelementptr inbounds nuw %struct.Abc_Obj_t_, ptr %3, i32 0, i32 0
  %5 = load ptr, ptr %4, align 8, !tbaa !86
  %6 = getelementptr inbounds nuw %struct.Abc_Ntk_t_, ptr %5, i32 0, i32 44
  %7 = load ptr, ptr %6, align 8, !tbaa !56
  ret ptr %7
}

; Function Attrs: inlinehint nounwind uwtable
define internal float @Bus_SclObjCin(ptr noundef %0) #4 {
  %2 = alloca ptr, align 8
  store ptr %0, ptr %2, align 8, !tbaa !60
  %3 = load ptr, ptr %2, align 8, !tbaa !60
  %4 = call ptr @Bus_SclObjMan(ptr noundef %3)
  %5 = getelementptr inbounds nuw %struct.Bus_Man_t_, ptr %4, i32 0, i32 7
  %6 = load ptr, ptr %5, align 8, !tbaa !52
  %7 = load ptr, ptr %2, align 8, !tbaa !60
  %8 = call i32 @Abc_ObjId(ptr noundef %7)
  %9 = call float @Vec_FltEntry(ptr noundef %6, i32 noundef %8)
  ret float %9
}

; Function Attrs: inlinehint nounwind uwtable
define internal float @Bus_SclObjETime(ptr noundef %0) #4 {
  %2 = alloca ptr, align 8
  store ptr %0, ptr %2, align 8, !tbaa !60
  %3 = load ptr, ptr %2, align 8, !tbaa !60
  %4 = call ptr @Bus_SclObjMan(ptr noundef %3)
  %5 = getelementptr inbounds nuw %struct.Bus_Man_t_, ptr %4, i32 0, i32 8
  %6 = load ptr, ptr %5, align 8, !tbaa !53
  %7 = load ptr, ptr %2, align 8, !tbaa !60
  %8 = call i32 @Abc_ObjId(ptr noundef %7)
  %9 = call float @Vec_FltEntry(ptr noundef %6, i32 noundef %8)
  ret float %9
}

; Function Attrs: inlinehint nounwind uwtable
define internal void @Vec_PtrGrow(ptr noundef %0, i32 noundef %1) #4 {
  %3 = alloca ptr, align 8
  %4 = alloca i32, align 4
  store ptr %0, ptr %3, align 8, !tbaa !66
  store i32 %1, ptr %4, align 4, !tbaa !58
  %5 = load ptr, ptr %3, align 8, !tbaa !66
  %6 = getelementptr inbounds nuw %struct.Vec_Ptr_t_, ptr %5, i32 0, i32 0
  %7 = load i32, ptr %6, align 8, !tbaa !68
  %8 = load i32, ptr %4, align 4, !tbaa !58
  %9 = icmp sge i32 %7, %8
  br i1 %9, label %10, label %11

10:                                               ; preds = %2
  br label %36

11:                                               ; preds = %2
  %12 = load ptr, ptr %3, align 8, !tbaa !66
  %13 = getelementptr inbounds nuw %struct.Vec_Ptr_t_, ptr %12, i32 0, i32 2
  %14 = load ptr, ptr %13, align 8, !tbaa !69
  %15 = icmp ne ptr %14, null
  br i1 %15, label %16, label %24

16:                                               ; preds = %11
  %17 = load ptr, ptr %3, align 8, !tbaa !66
  %18 = getelementptr inbounds nuw %struct.Vec_Ptr_t_, ptr %17, i32 0, i32 2
  %19 = load ptr, ptr %18, align 8, !tbaa !69
  %20 = load i32, ptr %4, align 4, !tbaa !58
  %21 = sext i32 %20 to i64
  %22 = mul i64 8, %21
  %23 = call ptr @realloc(ptr noundef %19, i64 noundef %22) #16
  br label %29

24:                                               ; preds = %11
  %25 = load i32, ptr %4, align 4, !tbaa !58
  %26 = sext i32 %25 to i64
  %27 = mul i64 8, %26
  %28 = call noalias ptr @malloc(i64 noundef %27) #15
  br label %29

29:                                               ; preds = %24, %16
  %30 = phi ptr [ %23, %16 ], [ %28, %24 ]
  %31 = load ptr, ptr %3, align 8, !tbaa !66
  %32 = getelementptr inbounds nuw %struct.Vec_Ptr_t_, ptr %31, i32 0, i32 2
  store ptr %30, ptr %32, align 8, !tbaa !69
  %33 = load i32, ptr %4, align 4, !tbaa !58
  %34 = load ptr, ptr %3, align 8, !tbaa !66
  %35 = getelementptr inbounds nuw %struct.Vec_Ptr_t_, ptr %34, i32 0, i32 0
  store i32 %33, ptr %35, align 8, !tbaa !68
  br label %36

36:                                               ; preds = %29, %10
  ret void
}

; Function Attrs: inlinehint nounwind uwtable
define internal ptr @Vec_PtrArray(ptr noundef %0) #4 {
  %2 = alloca ptr, align 8
  store ptr %0, ptr %2, align 8, !tbaa !66
  %3 = load ptr, ptr %2, align 8, !tbaa !66
  %4 = getelementptr inbounds nuw %struct.Vec_Ptr_t_, ptr %3, i32 0, i32 2
  %5 = load ptr, ptr %4, align 8, !tbaa !69
  ret ptr %5
}

; Function Attrs: nounwind uwtable
define i32 @Bus_SclCompareFanouts(ptr noundef %0, ptr noundef %1) #0 {
  %3 = alloca i32, align 4
  %4 = alloca ptr, align 8
  %5 = alloca ptr, align 8
  %6 = alloca float, align 4
  %7 = alloca i32, align 4
  store ptr %0, ptr %4, align 8, !tbaa !104
  store ptr %1, ptr %5, align 8, !tbaa !104
  call void @llvm.lifetime.start.p0(i64 4, ptr %6) #12
  store float 0.000000e+00, ptr %6, align 4, !tbaa !74
  %8 = load ptr, ptr %4, align 8, !tbaa !104
  %9 = load ptr, ptr %8, align 8, !tbaa !60
  %10 = call float @Bus_SclObjETime(ptr noundef %9)
  %11 = load ptr, ptr %5, align 8, !tbaa !104
  %12 = load ptr, ptr %11, align 8, !tbaa !60
  %13 = call float @Bus_SclObjETime(ptr noundef %12)
  %14 = load float, ptr %6, align 4, !tbaa !74
  %15 = fsub float %13, %14
  %16 = fcmp olt float %10, %15
  br i1 %16, label %17, label %18

17:                                               ; preds = %2
  store i32 -1, ptr %3, align 4
  store i32 1, ptr %7, align 4
  br label %48

18:                                               ; preds = %2
  %19 = load ptr, ptr %4, align 8, !tbaa !104
  %20 = load ptr, ptr %19, align 8, !tbaa !60
  %21 = call float @Bus_SclObjETime(ptr noundef %20)
  %22 = load ptr, ptr %5, align 8, !tbaa !104
  %23 = load ptr, ptr %22, align 8, !tbaa !60
  %24 = call float @Bus_SclObjETime(ptr noundef %23)
  %25 = load float, ptr %6, align 4, !tbaa !74
  %26 = fadd float %24, %25
  %27 = fcmp ogt float %21, %26
  br i1 %27, label %28, label %29

28:                                               ; preds = %18
  store i32 1, ptr %3, align 4
  store i32 1, ptr %7, align 4
  br label %48

29:                                               ; preds = %18
  %30 = load ptr, ptr %4, align 8, !tbaa !104
  %31 = load ptr, ptr %30, align 8, !tbaa !60
  %32 = call float @Bus_SclObjCin(ptr noundef %31)
  %33 = load ptr, ptr %5, align 8, !tbaa !104
  %34 = load ptr, ptr %33, align 8, !tbaa !60
  %35 = call float @Bus_SclObjCin(ptr noundef %34)
  %36 = fcmp ogt float %32, %35
  br i1 %36, label %37, label %38

37:                                               ; preds = %29
  store i32 -1, ptr %3, align 4
  store i32 1, ptr %7, align 4
  br label %48

38:                                               ; preds = %29
  %39 = load ptr, ptr %4, align 8, !tbaa !104
  %40 = load ptr, ptr %39, align 8, !tbaa !60
  %41 = call float @Bus_SclObjCin(ptr noundef %40)
  %42 = load ptr, ptr %5, align 8, !tbaa !104
  %43 = load ptr, ptr %42, align 8, !tbaa !60
  %44 = call float @Bus_SclObjCin(ptr noundef %43)
  %45 = fcmp olt float %41, %44
  br i1 %45, label %46, label %47

46:                                               ; preds = %38
  store i32 1, ptr %3, align 4
  store i32 1, ptr %7, align 4
  br label %48

47:                                               ; preds = %38
  store i32 -1, ptr %3, align 4
  store i32 1, ptr %7, align 4
  br label %48

48:                                               ; preds = %47, %46, %37, %28, %17
  call void @llvm.lifetime.end.p0(i64 4, ptr %6) #12
  %49 = load i32, ptr %3, align 4
  ret i32 %49
}

; Function Attrs: inlinehint nounwind uwtable
define internal void @Vec_PtrPush(ptr noundef %0, ptr noundef %1) #4 {
  %3 = alloca ptr, align 8
  %4 = alloca ptr, align 8
  store ptr %0, ptr %3, align 8, !tbaa !66
  store ptr %1, ptr %4, align 8, !tbaa !88
  %5 = load ptr, ptr %3, align 8, !tbaa !66
  %6 = getelementptr inbounds nuw %struct.Vec_Ptr_t_, ptr %5, i32 0, i32 1
  %7 = load i32, ptr %6, align 4, !tbaa !67
  %8 = load ptr, ptr %3, align 8, !tbaa !66
  %9 = getelementptr inbounds nuw %struct.Vec_Ptr_t_, ptr %8, i32 0, i32 0
  %10 = load i32, ptr %9, align 8, !tbaa !68
  %11 = icmp eq i32 %7, %10
  br i1 %11, label %12, label %26

12:                                               ; preds = %2
  %13 = load ptr, ptr %3, align 8, !tbaa !66
  %14 = getelementptr inbounds nuw %struct.Vec_Ptr_t_, ptr %13, i32 0, i32 0
  %15 = load i32, ptr %14, align 8, !tbaa !68
  %16 = icmp slt i32 %15, 16
  br i1 %16, label %17, label %19

17:                                               ; preds = %12
  %18 = load ptr, ptr %3, align 8, !tbaa !66
  call void @Vec_PtrGrow(ptr noundef %18, i32 noundef 16)
  br label %25

19:                                               ; preds = %12
  %20 = load ptr, ptr %3, align 8, !tbaa !66
  %21 = load ptr, ptr %3, align 8, !tbaa !66
  %22 = getelementptr inbounds nuw %struct.Vec_Ptr_t_, ptr %21, i32 0, i32 0
  %23 = load i32, ptr %22, align 8, !tbaa !68
  %24 = mul nsw i32 2, %23
  call void @Vec_PtrGrow(ptr noundef %20, i32 noundef %24)
  br label %25

25:                                               ; preds = %19, %17
  br label %26

26:                                               ; preds = %25, %2
  %27 = load ptr, ptr %4, align 8, !tbaa !88
  %28 = load ptr, ptr %3, align 8, !tbaa !66
  %29 = getelementptr inbounds nuw %struct.Vec_Ptr_t_, ptr %28, i32 0, i32 2
  %30 = load ptr, ptr %29, align 8, !tbaa !69
  %31 = load ptr, ptr %3, align 8, !tbaa !66
  %32 = getelementptr inbounds nuw %struct.Vec_Ptr_t_, ptr %31, i32 0, i32 1
  %33 = load i32, ptr %32, align 4, !tbaa !67
  %34 = add nsw i32 %33, 1
  store i32 %34, ptr %32, align 4, !tbaa !67
  %35 = sext i32 %33 to i64
  %36 = getelementptr inbounds ptr, ptr %30, i64 %35
  store ptr %27, ptr %36, align 8, !tbaa !88
  ret void
}

; Function Attrs: inlinehint nounwind uwtable
define internal void @Vec_PtrShrink(ptr noundef %0, i32 noundef %1) #4 {
  %3 = alloca ptr, align 8
  %4 = alloca i32, align 4
  store ptr %0, ptr %3, align 8, !tbaa !66
  store i32 %1, ptr %4, align 4, !tbaa !58
  %5 = load i32, ptr %4, align 4, !tbaa !58
  %6 = load ptr, ptr %3, align 8, !tbaa !66
  %7 = getelementptr inbounds nuw %struct.Vec_Ptr_t_, ptr %6, i32 0, i32 1
  store i32 %5, ptr %7, align 4, !tbaa !67
  ret void
}

; Function Attrs: inlinehint nounwind uwtable
define internal void @Vec_PtrWriteEntry(ptr noundef %0, i32 noundef %1, ptr noundef %2) #4 {
  %4 = alloca ptr, align 8
  %5 = alloca i32, align 4
  %6 = alloca ptr, align 8
  store ptr %0, ptr %4, align 8, !tbaa !66
  store i32 %1, ptr %5, align 4, !tbaa !58
  store ptr %2, ptr %6, align 8, !tbaa !88
  %7 = load ptr, ptr %6, align 8, !tbaa !88
  %8 = load ptr, ptr %4, align 8, !tbaa !66
  %9 = getelementptr inbounds nuw %struct.Vec_Ptr_t_, ptr %8, i32 0, i32 2
  %10 = load ptr, ptr %9, align 8, !tbaa !69
  %11 = load i32, ptr %5, align 4, !tbaa !58
  %12 = sext i32 %11 to i64
  %13 = getelementptr inbounds ptr, ptr %10, i64 %12
  store ptr %7, ptr %13, align 8, !tbaa !88
  ret void
}

; Function Attrs: inlinehint nounwind uwtable
define internal ptr @Vec_PtrEntry(ptr noundef %0, i32 noundef %1) #4 {
  %3 = alloca ptr, align 8
  %4 = alloca i32, align 4
  store ptr %0, ptr %3, align 8, !tbaa !66
  store i32 %1, ptr %4, align 4, !tbaa !58
  %5 = load ptr, ptr %3, align 8, !tbaa !66
  %6 = getelementptr inbounds nuw %struct.Vec_Ptr_t_, ptr %5, i32 0, i32 2
  %7 = load ptr, ptr %6, align 8, !tbaa !69
  %8 = load i32, ptr %4, align 4, !tbaa !58
  %9 = sext i32 %8 to i64
  %10 = getelementptr inbounds ptr, ptr %7, i64 %9
  %11 = load ptr, ptr %10, align 8, !tbaa !88
  ret ptr %11
}

; Function Attrs: inlinehint nounwind uwtable
define internal i32 @Vec_PtrSize(ptr noundef %0) #4 {
  %2 = alloca ptr, align 8
  store ptr %0, ptr %2, align 8, !tbaa !66
  %3 = load ptr, ptr %2, align 8, !tbaa !66
  %4 = getelementptr inbounds nuw %struct.Vec_Ptr_t_, ptr %3, i32 0, i32 1
  %5 = load i32, ptr %4, align 4, !tbaa !67
  ret i32 %5
}

; Function Attrs: nounwind uwtable
define void @Bus_SclInsertFanout(ptr noundef %0, ptr noundef %1) #0 {
  %3 = alloca ptr, align 8
  %4 = alloca ptr, align 8
  %5 = alloca ptr, align 8
  %6 = alloca i32, align 4
  %7 = alloca i32, align 4
  %8 = alloca ptr, align 8
  store ptr %0, ptr %3, align 8, !tbaa !66
  store ptr %1, ptr %4, align 8, !tbaa !60
  call void @llvm.lifetime.start.p0(i64 8, ptr %5) #12
  call void @llvm.lifetime.start.p0(i64 4, ptr %6) #12
  call void @llvm.lifetime.start.p0(i64 4, ptr %7) #12
  store i32 0, ptr %7, align 4, !tbaa !58
  store i32 0, ptr %6, align 4, !tbaa !58
  br label %9

9:                                                ; preds = %27, %2
  %10 = load i32, ptr %6, align 4, !tbaa !58
  %11 = load ptr, ptr %3, align 8, !tbaa !66
  %12 = call i32 @Vec_PtrSize(ptr noundef %11)
  %13 = icmp slt i32 %10, %12
  br i1 %13, label %14, label %30

14:                                               ; preds = %9
  %15 = load ptr, ptr %3, align 8, !tbaa !66
  %16 = load i32, ptr %6, align 4, !tbaa !58
  %17 = call ptr @Vec_PtrEntry(ptr noundef %15, i32 noundef %16)
  %18 = icmp ne ptr %17, null
  br i1 %18, label %19, label %26

19:                                               ; preds = %14
  %20 = load ptr, ptr %3, align 8, !tbaa !66
  %21 = load i32, ptr %7, align 4, !tbaa !58
  %22 = add nsw i32 %21, 1
  store i32 %22, ptr %7, align 4, !tbaa !58
  %23 = load ptr, ptr %3, align 8, !tbaa !66
  %24 = load i32, ptr %6, align 4, !tbaa !58
  %25 = call ptr @Vec_PtrEntry(ptr noundef %23, i32 noundef %24)
  call void @Vec_PtrWriteEntry(ptr noundef %20, i32 noundef %21, ptr noundef %25)
  br label %26

26:                                               ; preds = %19, %14
  br label %27

27:                                               ; preds = %26
  %28 = load i32, ptr %6, align 4, !tbaa !58
  %29 = add nsw i32 %28, 1
  store i32 %29, ptr %6, align 4, !tbaa !58
  br label %9, !llvm.loop !106

30:                                               ; preds = %9
  %31 = load ptr, ptr %3, align 8, !tbaa !66
  %32 = load i32, ptr %7, align 4, !tbaa !58
  call void @Vec_PtrShrink(ptr noundef %31, i32 noundef %32)
  %33 = load ptr, ptr %3, align 8, !tbaa !66
  %34 = load ptr, ptr %4, align 8, !tbaa !60
  call void @Vec_PtrPush(ptr noundef %33, ptr noundef %34)
  %35 = load ptr, ptr %3, align 8, !tbaa !66
  %36 = call i32 @Vec_PtrSize(ptr noundef %35)
  %37 = sub nsw i32 %36, 1
  store i32 %37, ptr %6, align 4, !tbaa !58
  br label %38

38:                                               ; preds = %78, %30
  %39 = load i32, ptr %6, align 4, !tbaa !58
  %40 = icmp sgt i32 %39, 0
  br i1 %40, label %41, label %81

41:                                               ; preds = %38
  %42 = load ptr, ptr %3, align 8, !tbaa !66
  %43 = load i32, ptr %6, align 4, !tbaa !58
  %44 = sub nsw i32 %43, 1
  %45 = call ptr @Vec_PtrEntry(ptr noundef %42, i32 noundef %44)
  store ptr %45, ptr %5, align 8, !tbaa !60
  %46 = load ptr, ptr %3, align 8, !tbaa !66
  %47 = load i32, ptr %6, align 4, !tbaa !58
  %48 = call ptr @Vec_PtrEntry(ptr noundef %46, i32 noundef %47)
  store ptr %48, ptr %4, align 8, !tbaa !60
  %49 = call i32 @Bus_SclCompareFanouts(ptr noundef %5, ptr noundef %4)
  %50 = icmp eq i32 %49, -1
  br i1 %50, label %51, label %52

51:                                               ; preds = %41
  br label %81

52:                                               ; preds = %41
  call void @llvm.lifetime.start.p0(i64 8, ptr %8) #12
  %53 = load ptr, ptr %3, align 8, !tbaa !66
  %54 = call ptr @Vec_PtrArray(ptr noundef %53)
  %55 = load i32, ptr %6, align 4, !tbaa !58
  %56 = sub nsw i32 %55, 1
  %57 = sext i32 %56 to i64
  %58 = getelementptr inbounds ptr, ptr %54, i64 %57
  %59 = load ptr, ptr %58, align 8, !tbaa !88
  store ptr %59, ptr %8, align 8, !tbaa !88
  %60 = load ptr, ptr %3, align 8, !tbaa !66
  %61 = call ptr @Vec_PtrArray(ptr noundef %60)
  %62 = load i32, ptr %6, align 4, !tbaa !58
  %63 = sext i32 %62 to i64
  %64 = getelementptr inbounds ptr, ptr %61, i64 %63
  %65 = load ptr, ptr %64, align 8, !tbaa !88
  %66 = load ptr, ptr %3, align 8, !tbaa !66
  %67 = call ptr @Vec_PtrArray(ptr noundef %66)
  %68 = load i32, ptr %6, align 4, !tbaa !58
  %69 = sub nsw i32 %68, 1
  %70 = sext i32 %69 to i64
  %71 = getelementptr inbounds ptr, ptr %67, i64 %70
  store ptr %65, ptr %71, align 8, !tbaa !88
  %72 = load ptr, ptr %8, align 8, !tbaa !88
  %73 = load ptr, ptr %3, align 8, !tbaa !66
  %74 = call ptr @Vec_PtrArray(ptr noundef %73)
  %75 = load i32, ptr %6, align 4, !tbaa !58
  %76 = sext i32 %75 to i64
  %77 = getelementptr inbounds ptr, ptr %74, i64 %76
  store ptr %72, ptr %77, align 8, !tbaa !88
  call void @llvm.lifetime.end.p0(i64 8, ptr %8) #12
  br label %78

78:                                               ; preds = %52
  %79 = load i32, ptr %6, align 4, !tbaa !58
  %80 = add nsw i32 %79, -1
  store i32 %80, ptr %6, align 4, !tbaa !58
  br label %38, !llvm.loop !107

81:                                               ; preds = %51, %38
  call void @llvm.lifetime.end.p0(i64 4, ptr %7) #12
  call void @llvm.lifetime.end.p0(i64 4, ptr %6) #12
  call void @llvm.lifetime.end.p0(i64 8, ptr %5) #12
  ret void
}