; Function Attrs: nounwind uwtable
define void @Bus_SclInsertFanout(ptr noundef captures(none) %0, ptr noundef %1) local_unnamed_addr #0 {
  %3 = getelementptr i8, ptr %0, i64 4
  %.val29 = load i32, ptr %3, align 4, !tbaa !42
  %4 = icmp sgt i32 %.val29, 0
  br i1 %4, label %.lr.ph, label %._crit_edge.thread

.lr.ph:                                           ; preds = %2
  %5 = getelementptr i8, ptr %0, i64 8
  %wide.trip.count = zext nneg i32 %.val29 to i64
  br label %6

6:                                                ; preds = %.lr.ph, %13
  %indvars.iv = phi i64 [ 0, %.lr.ph ], [ %indvars.iv.next, %13 ]
  %.02742 = phi i32 [ 0, %.lr.ph ], [ %.128, %13 ]
  %.val33 = load ptr, ptr %5, align 8, !tbaa !43
  %7 = getelementptr inbounds nuw ptr, ptr %.val33, i64 %indvars.iv
  %8 = load ptr, ptr %7, align 8, !tbaa !44
  %.not = icmp eq ptr %8, null
  br i1 %.not, label %13, label %9

9:                                                ; preds = %6
  %10 = add nsw i32 %.02742, 1
  %11 = sext i32 %.02742 to i64
  %12 = getelementptr inbounds ptr, ptr %.val33, i64 %11
  store ptr %8, ptr %12, align 8, !tbaa !44
  br label %13

13:                                               ; preds = %6, %9
  %.128 = phi i32 [ %10, %9 ], [ %.02742, %6 ]
  %indvars.iv.next = add nuw nsw i64 %indvars.iv, 1
  %exitcond.not = icmp eq i64 %indvars.iv.next, %wide.trip.count
  br i1 %exitcond.not, label %._crit_edge, label %6, !llvm.loop !100

._crit_edge:                                      ; preds = %13
  store i32 %.128, ptr %3, align 4, !tbaa !42
  %14 = load i32, ptr %0, align 8, !tbaa !64
  %15 = icmp eq i32 %.128, %14
  br i1 %15, label %18, label %.Vec_PtrGrow.exit11_crit_edge.i

._crit_edge.thread:                               ; preds = %2
  store i32 0, ptr %3, align 4, !tbaa !42
  %16 = load i32, ptr %0, align 8, !tbaa !64
  %17 = icmp eq i32 %16, 0
  br i1 %17, label %.thread, label %.Vec_PtrGrow.exit11_crit_edge.i

.Vec_PtrGrow.exit11_crit_edge.i:                  ; preds = %._crit_edge.thread, %._crit_edge
  %.phi.trans.insert.i = getelementptr inbounds nuw i8, ptr %0, i64 8
  %.pre.i = load ptr, ptr %.phi.trans.insert.i, align 8, !tbaa !43
  br label %Vec_PtrPush.exit

18:                                               ; preds = %._crit_edge
  %19 = icmp slt i32 %.128, 16
  br i1 %19, label %.thread, label %27

.thread:                                          ; preds = %._crit_edge.thread, %18
  %20 = getelementptr inbounds nuw i8, ptr %0, i64 8
  %21 = load ptr, ptr %20, align 8, !tbaa !43
  %.not9.i.i = icmp eq ptr %21, null
  br i1 %.not9.i.i, label %24, label %22

22:                                               ; preds = %.thread
  %23 = tail call dereferenceable_or_null(128) ptr @realloc(ptr noundef nonnull %21, i64 noundef 128) #27
  br label %Vec_PtrGrow.exit.i

24:                                               ; preds = %.thread
  %25 = tail call noalias dereferenceable_or_null(128) ptr @malloc(i64 noundef 128) #26
  br label %Vec_PtrGrow.exit.i

Vec_PtrGrow.exit.i:                               ; preds = %24, %22
  %26 = phi ptr [ %23, %22 ], [ %25, %24 ]
  store ptr %26, ptr %20, align 8, !tbaa !43
  store i32 16, ptr %0, align 8, !tbaa !64
  br label %Vec_PtrPush.exit

27:                                               ; preds = %18
  %28 = shl nuw nsw i32 %.128, 1
  %29 = getelementptr inbounds nuw i8, ptr %0, i64 8
  %30 = load ptr, ptr %29, align 8, !tbaa !43
  %.not9.i10.i = icmp eq ptr %30, null
  %31 = zext nneg i32 %28 to i64
  %32 = shl nuw nsw i64 %31, 3
  br i1 %.not9.i10.i, label %35, label %33

33:                                               ; preds = %27
  %34 = tail call ptr @realloc(ptr noundef nonnull %30, i64 noundef %32) #27
  br label %37

35:                                               ; preds = %27
  %36 = tail call noalias ptr @malloc(i64 noundef %32) #26
  br label %37

37:                                               ; preds = %35, %33
  %38 = phi ptr [ %34, %33 ], [ %36, %35 ]
  store ptr %38, ptr %29, align 8, !tbaa !43
  store i32 %28, ptr %0, align 8, !tbaa !64
  br label %Vec_PtrPush.exit

Vec_PtrPush.exit:                                 ; preds = %.Vec_PtrGrow.exit11_crit_edge.i, %Vec_PtrGrow.exit.i, %37
  %39 = phi ptr [ %.pre.i, %.Vec_PtrGrow.exit11_crit_edge.i ], [ %38, %37 ], [ %26, %Vec_PtrGrow.exit.i ]
  %40 = load i32, ptr %3, align 4, !tbaa !42
  %41 = add i32 %40, 1
  store i32 %41, ptr %3, align 4, !tbaa !42
  %42 = sext i32 %40 to i64
  %43 = getelementptr inbounds ptr, ptr %39, i64 %42
  store ptr %1, ptr %43, align 8, !tbaa !44
  %44 = icmp sgt i32 %40, 0
  br i1 %44, label %.lr.ph46, label %Bus_SclCompareFanouts.exit.thread

.lr.ph46:                                         ; preds = %Vec_PtrPush.exit
  %45 = getelementptr i8, ptr %0, i64 8
  %46 = zext nneg i32 %40 to i64
  %47 = zext i32 %41 to i64
  br label %48

48:                                               ; preds = %.lr.ph46, %Bus_SclCompareFanouts.exit
  %indvars.iv52 = phi i64 [ %47, %.lr.ph46 ], [ %indvars.iv.next53, %Bus_SclCompareFanouts.exit ]
  %indvars.iv50 = phi i64 [ %46, %.lr.ph46 ], [ %indvars.iv.next51, %Bus_SclCompareFanouts.exit ]
  %49 = add i64 %indvars.iv52, 4294967294
  %.val31 = load ptr, ptr %45, align 8, !tbaa !43
  %50 = and i64 %49, 4294967295
  %51 = getelementptr inbounds nuw ptr, ptr %.val31, i64 %50
  %52 = load ptr, ptr %51, align 8, !tbaa !44
  %53 = getelementptr inbounds nuw ptr, ptr %.val31, i64 %indvars.iv50
  %54 = load ptr, ptr %53, align 8, !tbaa !44
  %.val23.i = load ptr, ptr %52, align 8, !tbaa !48
  %55 = getelementptr i8, ptr %52, i64 16
  %.val24.i = load i32, ptr %55, align 8, !tbaa !51
  %56 = getelementptr i8, ptr %.val23.i, i64 360
  %.val23.val.i = load ptr, ptr %56, align 8, !tbaa !74
  %57 = getelementptr i8, ptr %.val23.val.i, i64 64
  %.val23.val.val.i = load ptr, ptr %57, align 8, !tbaa !70
  %58 = getelementptr i8, ptr %.val23.val.val.i, i64 8
  %.val23.val.val.val.i = load ptr, ptr %58, align 8, !tbaa !68
  %59 = sext i32 %.val24.i to i64
  %60 = getelementptr inbounds float, ptr %.val23.val.val.val.i, i64 %59
  %61 = load float, ptr %60, align 4, !tbaa !73
  %.val21.i = load ptr, ptr %54, align 8, !tbaa !48
  %62 = getelementptr i8, ptr %54, i64 16
  %.val22.i = load i32, ptr %62, align 8, !tbaa !51
  %63 = getelementptr i8, ptr %.val21.i, i64 360
  %.val21.val.i = load ptr, ptr %63, align 8, !tbaa !74
  %64 = getelementptr i8, ptr %.val21.val.i, i64 64
  %.val21.val.val.i = load ptr, ptr %64, align 8, !tbaa !70
  %65 = getelementptr i8, ptr %.val21.val.val.i, i64 8
  %.val21.val.val.val.i = load ptr, ptr %65, align 8, !tbaa !68
  %66 = sext i32 %.val22.i to i64
  %67 = getelementptr inbounds float, ptr %.val21.val.val.val.i, i64 %66
  %68 = load float, ptr %67, align 4, !tbaa !73
  %69 = fcmp olt float %61, %68
  br i1 %69, label %Bus_SclCompareFanouts.exit.thread, label %70

70:                                               ; preds = %48
  %71 = fcmp ogt float %61, %68
  br i1 %71, label %Bus_SclCompareFanouts.exit, label %72

72:                                               ; preds = %70
  %73 = getelementptr i8, ptr %.val23.val.i, i64 56
  %.val15.val.val.i = load ptr, ptr %73, align 8, !tbaa !69
  %74 = getelementptr i8, ptr %.val15.val.val.i, i64 8
  %.val15.val.val.val.i = load ptr, ptr %74, align 8, !tbaa !68
  %75 = getelementptr inbounds float, ptr %.val15.val.val.val.i, i64 %59
  %76 = load float, ptr %75, align 4, !tbaa !73
  %77 = getelementptr i8, ptr %.val21.val.i, i64 56
  %.val13.val.val.i = load ptr, ptr %77, align 8, !tbaa !69
  %78 = getelementptr i8, ptr %.val13.val.val.i, i64 8
  %.val13.val.val.val.i = load ptr, ptr %78, align 8, !tbaa !68
  %79 = getelementptr inbounds float, ptr %.val13.val.val.val.i, i64 %66
  %80 = load float, ptr %79, align 4, !tbaa !73
  %or.cond = fcmp olt float %76, %80
  br i1 %or.cond, label %Bus_SclCompareFanouts.exit, label %Bus_SclCompareFanouts.exit.thread

Bus_SclCompareFanouts.exit:                       ; preds = %72, %70
  store ptr %54, ptr %51, align 8, !tbaa !44
  %.val38 = load ptr, ptr %45, align 8, !tbaa !43
  %81 = getelementptr inbounds nuw ptr, ptr %.val38, i64 %indvars.iv50
  store ptr %52, ptr %81, align 8, !tbaa !44
  %indvars.iv.next51 = add nsw i64 %indvars.iv50, -1
  %82 = icmp sgt i64 %indvars.iv50, 1
  %indvars.iv.next53 = add nsw i64 %indvars.iv52, -1
  br i1 %82, label %48, label %Bus_SclCompareFanouts.exit.thread, !llvm.loop !101

Bus_SclCompareFanouts.exit.thread:                ; preds = %Bus_SclCompareFanouts.exit, %48, %72, %Vec_PtrPush.exit
  ret void
}